target datalayout = "e-m:e-p270:32:32-p271:32:32-p272:64:64-i64:64-i128:128-f80:128-n8:16:32:64-S128"
target triple = "x86_64-unknown-linux-gnu"

%"union.hermes::hbc::BytecodeOptions" = type { %struct.anon }
%struct.anon = type { i8 }
%"class.llvh::ArrayRef" = type { ptr, i64 }
%"class.hermes::hbc::BytecodeSerializer" = type { ptr, ptr, %"struct.hermes::BytecodeGenerationOptions", i64, i8, i32, i32, i32, %"class.llvh::SHA1" }
%"struct.hermes::BytecodeGenerationOptions" = type <{ i32, i8, i8, i8, i8, i8, i8, i8, i8, i32, i8, [3 x i8] }>
%"class.llvh::SHA1" = type { %struct.anon.35, [5 x i32] }
%struct.anon.35 = type { %union.anon, [5 x i32], i32, i8 }
%union.anon = type { [16 x i32] }
%"class.hermes::hbc::BytecodeModule" = type <{ %"class.std::vector", i32, [4 x i8], %"class.std::vector.0", %"class.std::vector.5", %"class.std::vector.10", %"class.std::vector.15", %"class.std::vector.20", %"class.std::vector.15", %"class.std::vector.15", %"class.std::vector.25", %"class.hermes::hbc::DebugInfo", %"class.std::vector.15", %"class.std::vector.15", %"class.std::vector.15", i32, [4 x i8], %"class.std::vector.30", %"class.std::vector.30", %"class.std::vector.30", %"union.hermes::hbc::BytecodeOptions", [7 x i8] }>
%"class.std::vector" = type { %"struct.std::_Vector_base" }
%"struct.std::_Vector_base" = type { %"struct.std::_Vector_base<std::unique_ptr<hermes::hbc::BytecodeFunction>, std::allocator<std::unique_ptr<hermes::hbc::BytecodeFunction>>>::_Vector_impl" }
%"struct.std::_Vector_base<std::unique_ptr<hermes::hbc::BytecodeFunction>, std::allocator<std::unique_ptr<hermes::hbc::BytecodeFunction>>>::_Vector_impl" = type { %"struct.std::_Vector_base<std::unique_ptr<hermes::hbc::BytecodeFunction>, std::allocator<std::unique_ptr<hermes::hbc::BytecodeFunction>>>::_Vector_impl_data" }
%"struct.std::_Vector_base<std::unique_ptr<hermes::hbc::BytecodeFunction>, std::allocator<std::unique_ptr<hermes::hbc::BytecodeFunction>>>::_Vector_impl_data" = type { ptr, ptr, ptr }
%"class.std::vector.0" = type { %"struct.std::_Vector_base.1" }
%"struct.std::_Vector_base.1" = type { %"struct.std::_Vector_base<hermes::StringKind::Entry, std::allocator<hermes::StringKind::Entry>>::_Vector_impl" }
%"struct.std::_Vector_base<hermes::StringKind::Entry, std::allocator<hermes::StringKind::Entry>>::_Vector_impl" = type { %"struct.std::_Vector_base<hermes::StringKind::Entry, std::allocator<hermes::StringKind::Entry>>::_Vector_impl_data" }
%"struct.std::_Vector_base<hermes::StringKind::Entry, std::allocator<hermes::StringKind::Entry>>::_Vector_impl_data" = type { ptr, ptr, ptr }
%"class.std::vector.5" = type { %"struct.std::_Vector_base.6" }
%"struct.std::_Vector_base.6" = type { %"struct.std::_Vector_base<unsigned int, std::allocator<unsigned int>>::_Vector_impl" }
%"struct.std::_Vector_base<unsigned int, std::allocator<unsigned int>>::_Vector_impl" = type { %"struct.std::_Vector_base<unsigned int, std::allocator<unsigned int>>::_Vector_impl_data" }
%"struct.std::_Vector_base<unsigned int, std::allocator<unsigned int>>::_Vector_impl_data" = type { ptr, ptr, ptr }
%"class.std::vector.10" = type { %"struct.std::_Vector_base.11" }
%"struct.std::_Vector_base.11" = type { %"struct.std::_Vector_base<hermes::StringTableEntry, std::allocator<hermes::StringTableEntry>>::_Vector_impl" }
%"struct.std::_Vector_base<hermes::StringTableEntry, std::allocator<hermes::StringTableEntry>>::_Vector_impl" = type { %"struct.std::_Vector_base<hermes::StringTableEntry, std::allocator<hermes::StringTableEntry>>::_Vector_impl_data" }
%"struct.std::_Vector_base<hermes::StringTableEntry, std::allocator<hermes::StringTableEntry>>::_Vector_impl_data" = type { ptr, ptr, ptr }
%"class.std::vector.20" = type { %"struct.std::_Vector_base.21" }
%"struct.std::_Vector_base.21" = type { %"struct.std::_Vector_base<hermes::bigint::BigIntTableEntry, std::allocator<hermes::bigint::BigIntTableEntry>>::_Vector_impl" }
%"struct.std::_Vector_base<hermes::bigint::BigIntTableEntry, std::allocator<hermes::bigint::BigIntTableEntry>>::_Vector_impl" = type { %"struct.std::_Vector_base<hermes::bigint::BigIntTableEntry, std::allocator<hermes::bigint::BigIntTableEntry>>::_Vector_impl_data" }
%"struct.std::_Vector_base<hermes::bigint::BigIntTableEntry, std::allocator<hermes::bigint::BigIntTableEntry>>::_Vector_impl_data" = type { ptr, ptr, ptr }
%"class.std::vector.25" = type { %"struct.std::_Vector_base.26" }
%"struct.std::_Vector_base.26" = type { %"struct.std::_Vector_base<hermes::RegExpTableEntry, std::allocator<hermes::RegExpTableEntry>>::_Vector_impl" }
%"struct.std::_Vector_base<hermes::RegExpTableEntry, std::allocator<hermes::RegExpTableEntry>>::_Vector_impl" = type { %"struct.std::_Vector_base<hermes::RegExpTableEntry, std::allocator<hermes::RegExpTableEntry>>::_Vector_impl_data" }
%"struct.std::_Vector_base<hermes::RegExpTableEntry, std::allocator<hermes::RegExpTableEntry>>::_Vector_impl_data" = type { ptr, ptr, ptr }
%"class.hermes::hbc::DebugInfo" = type { %"class.std::vector.10", %"class.std::vector.15", %"class.llvh::SmallVector", i32, i32, i32, %"class.hermes::hbc::StreamVector" }
%"class.llvh::SmallVector" = type <{ %"class.llvh::SmallVectorImpl", %"struct.llvh::SmallVectorStorage", [4 x i8] }>
%"class.llvh::SmallVectorImpl" = type { %"class.llvh::SmallVectorTemplateBase" }
%"class.llvh::SmallVectorTemplateBase" = type { %"class.llvh::SmallVectorTemplateCommon" }
%"class.llvh::SmallVectorTemplateCommon" = type { %"class.llvh::SmallVectorBase" }
%"class.llvh::SmallVectorBase" = type { ptr, i32, i32 }
%"struct.llvh::SmallVectorStorage" = type { [1 x %"struct.llvh::AlignedCharArrayUnion"] }
%"struct.llvh::AlignedCharArrayUnion" = type { %"struct.llvh::AlignedCharArray" }
%"struct.llvh::AlignedCharArray" = type { [12 x i8] }
%"class.hermes::hbc::StreamVector" = type { %"class.std::vector.15", %"class.llvh::ArrayRef" }
%"class.std::vector.15" = type { %"struct.std::_Vector_base.16" }
%"struct.std::_Vector_base.16" = type { %"struct.std::_Vector_base<unsigned char, std::allocator<unsigned char>>::_Vector_impl" }
%"struct.std::_Vector_base<unsigned char, std::allocator<unsigned char>>::_Vector_impl" = type { %"struct.std::_Vector_base<unsigned char, std::allocator<unsigned char>>::_Vector_impl_data" }
%"struct.std::_Vector_base<unsigned char, std::allocator<unsigned char>>::_Vector_impl_data" = type { ptr, ptr, ptr }
%"class.std::vector.30" = type { %"struct.std::_Vector_base.31" }
%"struct.std::_Vector_base.31" = type { %"struct.std::_Vector_base<std::pair<unsigned int, unsigned int>, std::allocator<std::pair<unsigned int, unsigned int>>>::_Vector_impl" }
%"struct.std::_Vector_base<std::pair<unsigned int, unsigned int>, std::allocator<std::pair<unsigned int, unsigned int>>>::_Vector_impl" = type { %"struct.std::_Vector_base<std::pair<unsigned int, unsigned int>, std::allocator<std::pair<unsigned int, unsigned int>>>::_Vector_impl_data" }
%"struct.std::_Vector_base<std::pair<unsigned int, unsigned int>, std::allocator<std::pair<unsigned int, unsigned int>>>::_Vector_impl_data" = type { ptr, ptr, ptr }

; Function Attrs: mustprogress nounwind uwtable
define linkonce_odr noundef ptr @_ZNKSt6vectorIhSaIhEE11_M_data_ptrIhEEPT_S4_(ptr noundef nonnull align 8 dereferenceable(24) %this, ptr noundef %__ptr) #0 comdat align 2 {
entry:
  %this.addr = alloca ptr, align 8
  %__ptr.addr = alloca ptr, align 8
  store ptr %this, ptr %this.addr, align 8
  store ptr %__ptr, ptr %__ptr.addr, align 8
  %0 = load ptr, ptr %__ptr.addr, align 8
  ret ptr %0
}

; Function Attrs: mustprogress nounwind uwtable
define linkonce_odr noundef i64 @_ZNKSt6vectorIhSaIhEE4sizeEv(ptr noundef nonnull align 8 dereferenceable(24) %this) #0 comdat align 2 {
entry:
  %this.addr = alloca ptr, align 8
  store ptr %this, ptr %this.addr, align 8
  %this1 = load ptr, ptr %this.addr, align 8
  %_M_impl = getelementptr inbounds %"struct.std::_Vector_base.16", ptr %this1, i32 0, i32 0
  %_M_finish = getelementptr inbounds %"struct.std::_Vector_base<unsigned char, std::allocator<unsigned char>>::_Vector_impl_data", ptr %_M_impl, i32 0, i32 1
  %0 = load ptr, ptr %_M_finish, align 8
  %_M_impl2 = getelementptr inbounds %"struct.std::_Vector_base.16", ptr %this1, i32 0, i32 0
  %_M_start = getelementptr inbounds %"struct.std::_Vector_base<unsigned char, std::allocator<unsigned char>>::_Vector_impl_data", ptr %_M_impl2, i32 0, i32 0
  %1 = load ptr, ptr %_M_start, align 8
  %sub.ptr.lhs.cast = ptrtoint ptr %0 to i64
  %sub.ptr.rhs.cast = ptrtoint ptr %1 to i64
  %sub.ptr.sub = sub i64 %sub.ptr.lhs.cast, %sub.ptr.rhs.cast
  ret i64 %sub.ptr.sub
}

; Function Attrs: mustprogress nounwind uwtable
define linkonce_odr noundef ptr @_ZNKSt6vectorIhSaIhEE4dataEv(ptr noundef nonnull align 8 dereferenceable(24) %this) #0 comdat align 2 {
entry:
  %this.addr = alloca ptr, align 8
  store ptr %this, ptr %this.addr, align 8
  %this1 = load ptr, ptr %this.addr, align 8
  %_M_impl = getelementptr inbounds %"struct.std::_Vector_base.16", ptr %this1, i32 0, i32 0
  %_M_start = getelementptr inbounds %"struct.std::_Vector_base<unsigned char, std::allocator<unsigned char>>::_Vector_impl_data", ptr %_M_impl, i32 0, i32 0
  %0 = load ptr, ptr %_M_start, align 8
  %call = call noundef ptr @_ZNKSt6vectorIhSaIhEE11_M_data_ptrIhEEPT_S4_(ptr noundef nonnull align 8 dereferenceable(24) %this1, ptr noundef %0) #8
  ret ptr %call
}

; Function Attrs: mustprogress nounwind uwtable
define linkonce_odr hidden void @_ZN4llvh8ArrayRefIhEC2EPKhm(ptr noundef nonnull align 8 dereferenceable(16) %this, ptr noundef %data, i64 noundef %length) unnamed_addr #0 comdat align 2 {
entry:
  %this.addr = alloca ptr, align 8
  %data.addr = alloca ptr, align 8
  %length.addr = alloca i64, align 8
  store ptr %this, ptr %this.addr, align 8
  store ptr %data, ptr %data.addr, align 8
  store i64 %length, ptr %length.addr, align 8
  %this1 = load ptr, ptr %this.addr, align 8
  %Data = getelementptr inbounds %"class.llvh::ArrayRef", ptr %this1, i32 0, i32 0
  %0 = load ptr, ptr %data.addr, align 8
  store ptr %0, ptr %Data, align 8
  %Length = getelementptr inbounds %"class.llvh::ArrayRef", ptr %this1, i32 0, i32 1
  %1 = load i64, ptr %length.addr, align 8
  store i64 %1, ptr %Length, align 8
  ret void
}

; Function Attrs: mustprogress nounwind uwtable
define linkonce_odr hidden noundef ptr @_ZNK4llvh8ArrayRefIhE4dataEv(ptr noundef nonnull align 8 dereferenceable(16) %this) #0 comdat align 2 {
entry:
  %this.addr = alloca ptr, align 8
  store ptr %this, ptr %this.addr, align 8
  %this1 = load ptr, ptr %this.addr, align 8
  %Data = getelementptr inbounds %"class.llvh::ArrayRef", ptr %this1, i32 0, i32 0
  %0 = load ptr, ptr %Data, align 8
  ret ptr %0
}

; Function Attrs: mustprogress nounwind uwtable
define linkonce_odr hidden noundef i64 @_ZNK4llvh8ArrayRefIhE4sizeEv(ptr noundef nonnull align 8 dereferenceable(16) %this) #0 comdat align 2 {
entry:
  %this.addr = alloca ptr, align 8
  store ptr %this, ptr %this.addr, align 8
  %this1 = load ptr, ptr %this.addr, align 8
  %Length = getelementptr inbounds %"class.llvh::ArrayRef", ptr %this1, i32 0, i32 1
  %0 = load i64, ptr %Length, align 8
  ret i64 %0
}

; Function Attrs: mustprogress nounwind uwtable
define linkonce_odr hidden void @_ZN4llvh8ArrayRefIhEC2ISaIhEEERKSt6vectorIhT_E(ptr noundef nonnull align 8 dereferenceable(16) %this, ptr noundef nonnull align 8 dereferenceable(24) %Vec) unnamed_addr #0 comdat align 2 {
entry:
  %this.addr = alloca ptr, align 8
  %Vec.addr = alloca ptr, align 8
  store ptr %this, ptr %this.addr, align 8
  store ptr %Vec, ptr %Vec.addr, align 8
  %this1 = load ptr, ptr %this.addr, align 8
  %Data = getelementptr inbounds %"class.llvh::ArrayRef", ptr %this1, i32 0, i32 0
  %0 = load ptr, ptr %Vec.addr, align 8
  %call = call noundef ptr @_ZNKSt6vectorIhSaIhEE4dataEv(ptr noundef nonnull align 8 dereferenceable(24) %0) #8
  store ptr %call, ptr %Data, align 8
  %Length = getelementptr inbounds %"class.llvh::ArrayRef", ptr %this1, i32 0, i32 1
  %1 = load ptr, ptr %Vec.addr, align 8
  %call2 = call noundef i64 @_ZNKSt6vectorIhSaIhEE4sizeEv(ptr noundef nonnull align 8 dereferenceable(24) %1) #8
  store i64 %call2, ptr %Length, align 8
  ret void
}

; Function Attrs: mustprogress nounwind uwtable
define linkonce_odr hidden void @_ZN6hermes3hbc18BytecodeSerializer16writeBinaryArrayIhEEvN4llvh8ArrayRefIT_EE(ptr noundef nonnull align 8 dereferenceable(176) %this, ptr %array.coerce0, i64 %array.coerce1) #0 comdat align 2 {
entry:
  %array = alloca %"class.llvh::ArrayRef", align 8
  %this.addr = alloca ptr, align 8
  %size = alloca i64, align 8
  %agg.tmp = alloca %"class.llvh::ArrayRef", align 8
  %0 = getelementptr inbounds { ptr, i64 }, ptr %array, i32 0, i32 0
  store ptr %array.coerce0, ptr %0, align 8
  %1 = getelementptr inbounds { ptr, i64 }, ptr %array, i32 0, i32 1
  store i64 %array.coerce1, ptr %1, align 8
  store ptr %this, ptr %this.addr, align 8
  %this1 = load ptr, ptr %this.addr, align 8
  %call = call noundef i64 @_ZNK4llvh8ArrayRefIhE4sizeEv(ptr noundef nonnull align 8 dereferenceable(16) %array)
  %mul = mul i64 1, %call
  store i64 %mul, ptr %size, align 8
  %isLayout_ = getelementptr inbounds %"class.hermes::hbc::BytecodeSerializer", ptr %this1, i32 0, i32 4
  %2 = load i8, ptr %isLayout_, align 8
  %tobool = trunc i8 %2 to i1
  br i1 %tobool, label %if.end, label %if.then

if.then:                                          ; preds = %entry
  %outputHasher_ = getelementptr inbounds %"class.hermes::hbc::BytecodeSerializer", ptr %this1, i32 0, i32 8
  %call2 = call noundef ptr @_ZNK4llvh8ArrayRefIhE4dataEv(ptr noundef nonnull align 8 dereferenceable(16) %array)
  %3 = load i64, ptr %size, align 8
  call void @_ZN4llvh8ArrayRefIhEC2EPKhm(ptr noundef nonnull align 8 dereferenceable(16) %agg.tmp, ptr noundef %call2, i64 noundef %3)
  %4 = getelementptr inbounds { ptr, i64 }, ptr %agg.tmp, i32 0, i32 0
  %5 = load ptr, ptr %4, align 8
  %6 = getelementptr inbounds { ptr, i64 }, ptr %agg.tmp, i32 0, i32 1
  %7 = load i64, ptr %6, align 8
  call void @_ZN4llvh4SHA16updateENS_8ArrayRefIhEE(ptr noundef nonnull align 4 dereferenceable(112) %outputHasher_, ptr %5, i64 %7)
  %os_ = getelementptr inbounds %"class.hermes::hbc::BytecodeSerializer", ptr %this1, i32 0, i32 0
  %8 = load ptr, ptr %os_, align 8
  %call3 = call noundef ptr @_ZNK4llvh8ArrayRefIhE4dataEv(ptr noundef nonnull align 8 dereferenceable(16) %array)
  %9 = load i64, ptr %size, align 8
  %call4 = call noundef nonnull align 8 dereferenceable(36) ptr @_ZN4llvh11raw_ostream5writeEPKcm(ptr noundef nonnull align 8 dereferenceable(36) %8, ptr noundef %call3, i64 noundef %9)
  br label %if.end

if.end:                                           ; preds = %if.then, %entry
  %10 = load i64, ptr %size, align 8
  %loc_ = getelementptr inbounds %"class.hermes::hbc::BytecodeSerializer", ptr %this1, i32 0, i32 3
  %11 = load i64, ptr %loc_, align 8
  %add = add i64 %11, %10
  store i64 %add, ptr %loc_, align 8
  ret void
}

; Function Attrs: mustprogress nounwind uwtable
define linkonce_odr hidden { ptr, i64 } @_ZNK6hermes3hbc14BytecodeModule14getArrayBufferEv(ptr noundef nonnull align 8 dereferenceable(513) %this) #0 comdat align 2 {
entry:
  %retval = alloca %"class.llvh::ArrayRef", align 8
  %this.addr = alloca ptr, align 8
  store ptr %this, ptr %this.addr, align 8
  %this1 = load ptr, ptr %this.addr, align 8
  %arrayBuffer_ = getelementptr inbounds %"class.hermes::hbc::BytecodeModule", ptr %this1, i32 0, i32 12
  call void @_ZN4llvh8ArrayRefIhEC2ISaIhEEERKSt6vectorIhT_E(ptr noundef nonnull align 8 dereferenceable(16) %retval, ptr noundef nonnull align 8 dereferenceable(24) %arrayBuffer_)
  %0 = load { ptr, i64 }, ptr %retval, align 8
  ret { ptr, i64 } %0
}

; Function Attrs: mustprogress nounwind uwtable
define hidden void @_ZN6hermes3hbc18BytecodeSerializer20serializeArrayBufferERNS0_14BytecodeModuleE(ptr noundef nonnull align 8 dereferenceable(176) %this, ptr noundef nonnull align 8 dereferenceable(513) %BM) #0 align 2 {
entry:
  %this.addr = alloca ptr, align 8
  %BM.addr = alloca ptr, align 8
  %agg.tmp = alloca %"class.llvh::ArrayRef", align 8
  store ptr %this, ptr %this.addr, align 8
  store ptr %BM, ptr %BM.addr, align 8
  %this1 = load ptr, ptr %this.addr, align 8
  %0 = load ptr, ptr %BM.addr, align 8
  %call = call { ptr, i64 } @_ZNK6hermes3hbc14BytecodeModule14getArrayBufferEv(ptr noundef nonnull align 8 dereferenceable(513) %0)
  %1 = getelementptr inbounds { ptr, i64 }, ptr %agg.tmp, i32 0, i32 0
  %2 = extractvalue { ptr, i64 } %call, 0
  store ptr %2, ptr %1, align 8
  %3 = getelementptr inbounds { ptr, i64 }, ptr %agg.tmp, i32 0, i32 1
  %4 = extractvalue { ptr, i64 } %call, 1
  store i64 %4, ptr %3, align 8
  %5 = getelementptr inbounds { ptr, i64 }, ptr %agg.tmp, i32 0, i32 0
  %6 = load ptr, ptr %5, align 8
  %7 = getelementptr inbounds { ptr, i64 }, ptr %agg.tmp, i32 0, i32 1
  %8 = load i64, ptr %7, align 8
  call void @_ZN6hermes3hbc18BytecodeSerializer16writeBinaryArrayIhEEvN4llvh8ArrayRefIT_EE(ptr noundef nonnull align 8 dereferenceable(176) %this1, ptr %6, i64 %8)
  ret void
}