; Function Attrs: mustprogress nounwind uwtable
define hidden void @_ZN6hermes3hbc18BytecodeSerializer20serializeArrayBufferERNS0_14BytecodeModuleE(ptr noundef nonnull align 8 dereferenceable(176) %this, ptr noundef nonnull readonly align 8 captures(none) dereferenceable(513) %BM) local_unnamed_addr #0 align 2 {
entry:
  %arrayBuffer_.i = getelementptr inbounds nuw i8, ptr %BM, i64 360
  %0 = load ptr, ptr %arrayBuffer_.i, align 8
  %_M_finish.i.i.i = getelementptr inbounds nuw i8, ptr %BM, i64 368
  %1 = load ptr, ptr %_M_finish.i.i.i, align 8
  %sub.ptr.lhs.cast.i.i.i = ptrtoint ptr %1 to i64
  %sub.ptr.rhs.cast.i.i.i = ptrtoint ptr %0 to i64
  %sub.ptr.sub.i.i.i = sub i64 %sub.ptr.lhs.cast.i.i.i, %sub.ptr.rhs.cast.i.i.i
  %isLayout_.i = getelementptr inbounds nuw i8, ptr %this, i64 48
  %2 = load i8, ptr %isLayout_.i, align 8
  %tobool.i = trunc i8 %2 to i1
  br i1 %tobool.i, label %_ZN6hermes3hbc18BytecodeSerializer16writeBinaryArrayIhEEvN4llvh8ArrayRefIT_EE.exit, label %if.then.i

if.then.i:                                        ; preds = %entry
  %outputHasher_.i = getelementptr inbounds nuw i8, ptr %this, i64 64
  tail call void @_ZN4llvh4SHA16updateENS_8ArrayRefIhEE(ptr noundef nonnull align 4 dereferenceable(112) %outputHasher_.i, ptr %0, i64 %sub.ptr.sub.i.i.i) #12
  %3 = load ptr, ptr %this, align 8
  %call4.i = tail call noundef nonnull align 8 dereferenceable(36) ptr @_ZN4llvh11raw_ostream5writeEPKcm(ptr noundef nonnull align 8 dereferenceable(36) %3, ptr noundef %0, i64 noundef %sub.ptr.sub.i.i.i) #12
  br label %_ZN6hermes3hbc18BytecodeSerializer16writeBinaryArrayIhEEvN4llvh8ArrayRefIT_EE.exit

_ZN6hermes3hbc18BytecodeSerializer16writeBinaryArrayIhEEvN4llvh8ArrayRefIT_EE.exit: ; preds = %entry, %if.then.i
  %loc_.i = getelementptr inbounds nuw i8, ptr %this, i64 40
  %4 = load i64, ptr %loc_.i, align 8
  %add.i = add i64 %4, %sub.ptr.sub.i.i.i
  store i64 %add.i, ptr %loc_.i, align 8
  ret void
}